; ModuleID = '30/220.c'
source_filename = "30/220.c"
target datalayout = "e-m:e-p270:32:32-p271:32:32-p272:64:64-i64:64-f80:128-n8:16:32:64-S128"
target triple = "x86_64-pc-linux-gnu"

@.str = private unnamed_addr constant [3 x i8] c"%d\00", align 1
@.str.1 = private unnamed_addr constant [4 x i8] c"%d\0A\00", align 1

; Function Attrs: noinline nounwind uwtable
define dso_local void @main() #0 {
  %1 = alloca i32, align 4
  %2 = alloca i32, align 4
  %3 = alloca i32, align 4
  %4 = alloca i32, align 4
  %5 = alloca i32, align 4
  %6 = alloca i32, align 4
  store i32 0, i32* %6, align 4
  %7 = call i32 (i8*, ...) @__isoc99_scanf(i8* getelementptr inbounds ([3 x i8], [3 x i8]* @.str, i64 0, i64 0), i32* %1)
  store i32 1, i32* %5, align 4
  br label %8

8:                                                ; preds = %37, %0
  %9 = load i32, i32* %5, align 4
  %10 = load i32, i32* %1, align 4
  %11 = icmp sle i32 %9, %10
  br i1 %11, label %12, label %40

12:                                               ; preds = %8
  %13 = load i32, i32* %5, align 4
  %14 = srem i32 %13, 10
  store i32 %14, i32* %2, align 4
  %15 = load i32, i32* %5, align 4
  %16 = sdiv i32 %15, 10
  store i32 %16, i32* %4, align 4
  %17 = load i32, i32* %4, align 4
  %18 = srem i32 %17, 10
  store i32 %18, i32* %3, align 4
  %19 = load i32, i32* %2, align 4
  %20 = icmp ne i32 %19, 7
  br i1 %20, label %21, label %36

21:                                               ; preds = %12
  %22 = load i32, i32* %3, align 4
  %23 = icmp ne i32 %22, 7
  br i1 %23, label %24, label %36

24:                                               ; preds = %21
  %25 = load i32, i32* %5, align 4
  %26 = srem i32 %25, 7
  %27 = icmp ne i32 %26, 0
  br i1 %27, label %28, label %36

28:                                               ; preds = %24
  %29 = load i32, i32* %5, align 4
  %30 = sitofp i32 %29 to double
  %31 = call double @pow(double %30, double 2.000000e+00) #3
  %32 = load i32, i32* %6, align 4
  %33 = sitofp i32 %32 to double
  %34 = fadd double %33, %31
  %35 = fptosi double %34 to i32
  store i32 %35, i32* %6, align 4
  br label %36

36:                                               ; preds = %28, %24, %21, %12
  br label %37

37:                                               ; preds = %36
  %38 = load i32, i32* %5, align 4
  %39 = add nsw i32 %38, 1
  store i32 %39, i32* %5, align 4
  br label %8

40:                                               ; preds = %8
  %41 = load i32, i32* %6, align 4
  %42 = call i32 (i8*, ...) @printf(i8* getelementptr inbounds ([4 x i8], [4 x i8]* @.str.1, i64 0, i64 0), i32 %41)
  ret void
}

declare dso_local i32 @__isoc99_scanf(i8*, ...) #1

; Function Attrs: nounwind
declare dso_local double @pow(double, double) #2

declare dso_local i32 @printf(i8*, ...) #1


!llvm.module.flags = !{!0}
!llvm.ident = !{!1}

!0 = !{i32 1, !"wchar_size", i32 4}
!1 = !{!"clang version 10.0.0-4ubuntu1 "}
